#include <math.h>
#include <stdio.h>
#include <stdlib.h>
#include <string.h>

void main()
{
	int m,n,c,i,j;
	char s1[200],s2[200];
	c=0;
	scanf("%s",s1);
	scanf("%s",s2);
	m=strlen(s1);
	n=strlen(s2);
	if(m!=n)
	{
		printf("NO");
	}
	else
	{
		for(i=0;i<m;i++)
		{
			for(j=0;j<m;j++)
			{
				if(s2[j]==s1[i])
				{
					s2[j]=' ';
					c=0;
					break;
				}
				else
				{
					c=1;
				}
			}
		}
			if(c==0)
		{
			printf("YES");
		}
		else
		{
			printf("NO");
		}
	}
	
}
